; Function Attrs: mustprogress nofree norecurse nosync nounwind willreturn memory(read, argmem: readwrite, inaccessiblemem: none) uwtable
define void @_ZN5boost9iostreams6detail10bzip2_base5afterERPKcRPc(ptr nocapture noundef nonnull readonly align 8 dereferenceable(17) %0, ptr nocapture noundef nonnull writeonly align 8 dereferenceable(8) %1, ptr nocapture noundef nonnull writeonly align 8 dereferenceable(8) %2) local_unnamed_addr #10 align 2 {
  %4 = getelementptr inbounds nuw i8, ptr %0, i64 8
  %5 = load ptr, ptr %4, align 8, !tbaa !23
  %6 = load ptr, ptr %5, align 8, !tbaa !28
  store ptr %6, ptr %1, align 8, !tbaa !7
  %7 = getelementptr inbounds nuw i8, ptr %5, i64 24
  %8 = load ptr, ptr %7, align 8, !tbaa !31
  store ptr %8, ptr %2, align 8, !tbaa !7
  ret void
}